target datalayout = "e-m:e-p270:32:32-p271:32:32-p272:64:64-i64:64-i128:128-f80:128-n8:16:32:64-S128"
target triple = "x86_64-unknown-linux-gnu"

%struct.ssl_st = type { i32, i16, i16, ptr, ptr, ptr, ptr, ptr, i32, i32, ptr, ptr, i32, i32, ptr, ptr, ptr, ptr, ptr, ptr, ptr, ptr, i32, i32, [32 x i8], ptr, ptr, ptr, ptr, ptr, ptr, ptr, i64, %struct.crypto_ex_data_st, ptr, i32, i32, i32, i32, i16, ptr, i32, i64, ptr, ptr, ptr, ptr, ptr, ptr, i32, i32, ptr, ptr, i8, i8, i32 }
%struct.crypto_ex_data_st = type { ptr }
%struct.ssl_ctx_st = type { ptr, %union.crypto_mutex_st, i16, i16, ptr, ptr, ptr, ptr, ptr, ptr, i64, ptr, ptr, i32, i32, i64, ptr, ptr, ptr, i32, ptr, ptr, ptr, ptr, ptr, ptr, %struct.crypto_ex_data_st, ptr, ptr, ptr, ptr, i32, i32, i32, ptr, ptr, ptr, i32, i32, [32 x i8], ptr, ptr, ptr, ptr, i16, ptr, ptr, [16 x i8], [16 x i8], [16 x i8], ptr, ptr, ptr, ptr, i8, ptr, ptr, ptr, ptr, ptr, ptr, ptr, i32, ptr, i64, ptr, ptr, ptr, i64, ptr, i64, ptr, ptr, i8, ptr, i32 }
%union.crypto_mutex_st = type { double, [48 x i8] }

; Function Attrs: nounwind uwtable
define hidden ptr @ssl_get_cipher_preferences(ptr noundef %ssl) #0 {
entry:
  %retval = alloca ptr, align 8
  %ssl.addr = alloca ptr, align 8
  store ptr %ssl, ptr %ssl.addr, align 8
  %0 = load ptr, ptr %ssl.addr, align 8
  %cipher_list = getelementptr inbounds %struct.ssl_st, ptr %0, i32 0, i32 19
  %1 = load ptr, ptr %cipher_list, align 8
  %cmp = icmp ne ptr %1, null
  br i1 %cmp, label %if.then, label %if.end

if.then:                                          ; preds = %entry
  %2 = load ptr, ptr %ssl.addr, align 8
  %cipher_list1 = getelementptr inbounds %struct.ssl_st, ptr %2, i32 0, i32 19
  %3 = load ptr, ptr %cipher_list1, align 8
  store ptr %3, ptr %retval, align 8
  br label %return

if.end:                                           ; preds = %entry
  %4 = load ptr, ptr %ssl.addr, align 8
  %version = getelementptr inbounds %struct.ssl_st, ptr %4, i32 0, i32 0
  %5 = load i32, ptr %version, align 8
  %cmp2 = icmp sge i32 %5, 770
  br i1 %cmp2, label %land.lhs.true, label %if.end7

land.lhs.true:                                    ; preds = %if.end
  %6 = load ptr, ptr %ssl.addr, align 8
  %ctx = getelementptr inbounds %struct.ssl_st, ptr %6, i32 0, i32 31
  %7 = load ptr, ptr %ctx, align 8
  %cipher_list_tls11 = getelementptr inbounds %struct.ssl_ctx_st, ptr %7, i32 0, i32 7
  %8 = load ptr, ptr %cipher_list_tls11, align 8
  %cmp3 = icmp ne ptr %8, null
  br i1 %cmp3, label %if.then4, label %if.end7

if.then4:                                         ; preds = %land.lhs.true
  %9 = load ptr, ptr %ssl.addr, align 8
  %ctx5 = getelementptr inbounds %struct.ssl_st, ptr %9, i32 0, i32 31
  %10 = load ptr, ptr %ctx5, align 8
  %cipher_list_tls116 = getelementptr inbounds %struct.ssl_ctx_st, ptr %10, i32 0, i32 7
  %11 = load ptr, ptr %cipher_list_tls116, align 8
  store ptr %11, ptr %retval, align 8
  br label %return

if.end7:                                          ; preds = %land.lhs.true, %if.end
  %12 = load ptr, ptr %ssl.addr, align 8
  %version8 = getelementptr inbounds %struct.ssl_st, ptr %12, i32 0, i32 0
  %13 = load i32, ptr %version8, align 8
  %cmp9 = icmp sge i32 %13, 769
  br i1 %cmp9, label %land.lhs.true10, label %if.end16

land.lhs.true10:                                  ; preds = %if.end7
  %14 = load ptr, ptr %ssl.addr, align 8
  %ctx11 = getelementptr inbounds %struct.ssl_st, ptr %14, i32 0, i32 31
  %15 = load ptr, ptr %ctx11, align 8
  %cipher_list_tls10 = getelementptr inbounds %struct.ssl_ctx_st, ptr %15, i32 0, i32 6
  %16 = load ptr, ptr %cipher_list_tls10, align 8
  %cmp12 = icmp ne ptr %16, null
  br i1 %cmp12, label %if.then13, label %if.end16

if.then13:                                        ; preds = %land.lhs.true10
  %17 = load ptr, ptr %ssl.addr, align 8
  %ctx14 = getelementptr inbounds %struct.ssl_st, ptr %17, i32 0, i32 31
  %18 = load ptr, ptr %ctx14, align 8
  %cipher_list_tls1015 = getelementptr inbounds %struct.ssl_ctx_st, ptr %18, i32 0, i32 6
  %19 = load ptr, ptr %cipher_list_tls1015, align 8
  store ptr %19, ptr %retval, align 8
  br label %return

if.end16:                                         ; preds = %land.lhs.true10, %if.end7
  %20 = load ptr, ptr %ssl.addr, align 8
  %ctx17 = getelementptr inbounds %struct.ssl_st, ptr %20, i32 0, i32 31
  %21 = load ptr, ptr %ctx17, align 8
  %cipher_list18 = getelementptr inbounds %struct.ssl_ctx_st, ptr %21, i32 0, i32 4
  %22 = load ptr, ptr %cipher_list18, align 8
  %cmp19 = icmp ne ptr %22, null
  br i1 %cmp19, label %if.then20, label %if.end23

if.then20:                                        ; preds = %if.end16
  %23 = load ptr, ptr %ssl.addr, align 8
  %ctx21 = getelementptr inbounds %struct.ssl_st, ptr %23, i32 0, i32 31
  %24 = load ptr, ptr %ctx21, align 8
  %cipher_list22 = getelementptr inbounds %struct.ssl_ctx_st, ptr %24, i32 0, i32 4
  %25 = load ptr, ptr %cipher_list22, align 8
  store ptr %25, ptr %retval, align 8
  br label %return

if.end23:                                         ; preds = %if.end16
  store ptr null, ptr %retval, align 8
  br label %return

return:                                           ; preds = %if.end23, %if.then20, %if.then13, %if.then4, %if.then
  %26 = load ptr, ptr %retval, align 8
  ret ptr %26
}