; Function Attrs: mustprogress nofree norecurse nosync nounwind willreturn memory(read, inaccessiblemem: none) uwtable
define hidden ptr @ssl_get_cipher_preferences(ptr noundef readonly captures(none) %ssl) local_unnamed_addr #5 {
entry:
  %cipher_list = getelementptr inbounds nuw i8, ptr %ssl, i64 120
  %0 = load ptr, ptr %cipher_list, align 8
  %cmp.not = icmp eq ptr %0, null
  br i1 %cmp.not, label %if.end, label %return

if.end:                                           ; preds = %entry
  %1 = load i32, ptr %ssl, align 8
  %cmp2 = icmp sgt i32 %1, 769
  br i1 %cmp2, label %land.lhs.true, label %if.end7

land.lhs.true:                                    ; preds = %if.end
  %ctx = getelementptr inbounds nuw i8, ptr %ssl, i64 232
  %2 = load ptr, ptr %ctx, align 8
  %cipher_list_tls11 = getelementptr inbounds nuw i8, ptr %2, i64 96
  %3 = load ptr, ptr %cipher_list_tls11, align 8
  %cmp3.not = icmp eq ptr %3, null
  br i1 %cmp3.not, label %land.lhs.true10, label %return

if.end7:                                          ; preds = %if.end
  %cmp9 = icmp eq i32 %1, 769
  %ctx11.phi.trans.insert = getelementptr inbounds nuw i8, ptr %ssl, i64 232
  %.pre = load ptr, ptr %ctx11.phi.trans.insert, align 8
  br i1 %cmp9, label %land.lhs.true10, label %if.end16

land.lhs.true10:                                  ; preds = %if.end7, %land.lhs.true
  %4 = phi ptr [ %2, %land.lhs.true ], [ %.pre, %if.end7 ]
  %cipher_list_tls10 = getelementptr inbounds nuw i8, ptr %4, i64 88
  %5 = load ptr, ptr %cipher_list_tls10, align 8
  %cmp12.not = icmp eq ptr %5, null
  br i1 %cmp12.not, label %if.end16, label %return

if.end16:                                         ; preds = %if.end7, %land.lhs.true10
  %6 = phi ptr [ %4, %land.lhs.true10 ], [ %.pre, %if.end7 ]
  %cipher_list18 = getelementptr inbounds nuw i8, ptr %6, i64 72
  %7 = load ptr, ptr %cipher_list18, align 8
  br label %return

return:                                           ; preds = %if.end16, %land.lhs.true10, %land.lhs.true, %entry
  %retval.0 = phi ptr [ %0, %entry ], [ %3, %land.lhs.true ], [ %5, %land.lhs.true10 ], [ %7, %if.end16 ]
  ret ptr %retval.0
}